Certificate:
    Data:
        Version: 3 (0x2)
        Serial Number: 1 (0x1)
    Signature Algorithm: sha256WithRSAEncryption
        Issuer: O=US3, OU=US3 Unit, CN=US3
        Validity
            Not Before: Jan 22 23:45:07 2019 GMT
            Not After : May  3 23:45:07 2019 GMT
        Subject: ST=WA, O=Test, OU=Test Unit, CN=a, CN=test.com
        Subject Public Key Info:
            Public Key Algorithm: rsaEncryption
                Public-Key: (2048 bit)
                Modulus:
                    00:d9:b9:25:fb:b1:e5:c3:3e:c9:9f:54:81:98:5a:
                    47:e5:c4:89:ab:48:46:65:36:d1:a5:7e:29:d5:06:
                    b4:63:f2:ae:e0:cb:12:63:b1:0e:ee:ea:15:8a:76:
                    8d:0b:05:15:b8:48:ed:09:be:5a:1f:7b:68:2d:75:
                    62:57:64:aa:f1:1e:14:90:b0:37:90:f5:da:5a:97:
                    c8:e3:68:f7:26:83:a4:3e:a7:18:91:6e:6c:19:80:
                    5c:cc:72:c6:98:7e:b2:3f:c2:af:52:72:b9:58:df:
                    c4:b7:e5:64:d0:d8:86:58:45:c0:9b:30:0d:7a:c4:
                    17:0b:23:7d:23:9a:7d:fb:9d:e1:a8:b1:7e:81:80:
                    3a:3f:d2:dc:c3:d3:3d:9b:ec:51:62:a2:ce:64:a3:
                    04:b6:46:f2:60:37:37:37:1e:b1:6c:3d:31:86:c7:
                    90:8b:73:90:4a:c1:5e:a6:63:c8:0e:0e:dc:da:06:
                    b8:c4:bf:05:75:0c:e4:af:16:2c:b0:2c:da:b8:9c:
                    0f:01:7d:9d:0c:ba:b5:e8:d1:1a:cd:af:68:35:2a:
                    4c:21:8b:52:e3:a8:60:7a:82:32:99:b9:8d:c8:2c:
                    e5:16:93:95:d7:fc:27:4d:d6:2e:92:92:f4:37:3b:
                    e8:8e:ed:e4:92:2e:29:3d:ed:69:1e:56:3b:16:cf:
                    63:5d
                Exponent: 65537 (0x10001)
        X509v3 extensions:
            X509v3 Subject Alternative Name: 
                DNS:test.com, DNS:blah.com
    Signature Algorithm: sha256WithRSAEncryption
         b2:2b:cb:78:73:27:10:29:65:d1:91:ff:56:7c:d6:a5:3f:bf:
         3c:53:50:07:01:48:2b:27:7b:07:29:08:c8:c8:79:c0:83:18:
         d3:89:8b:26:81:65:99:ed:19:1f:14:e0:3c:d4:24:a6:60:65:
         9a:1e:33:c1:6a:40:6b:61:7a:7e:e1:6f:8c:8e:cf:5f:77:ae:
         f6:d7:bd:3b:d2:75:86:40:16:68:4b:3e:c5:17:7c:19:11:10:
         44:14:79:6b:66:95:a7:fd:7e:7f:c3:20:72:d4:5e:11:58:8a:
         29:55:95:19:ec:2d:fc:69:4b:9b:99:bd:15:d7:5d:1f:de:a1:
         43:ea:c9:26:18:3e:cf:b8:6a:56:47:c4:b0:d6:1d:71:c8:e1:
         c0:57:3f:1e:9d:8c:10:c1:d7:d0:ac:2e:e0:e8:92:92:fb:c1:
         e3:35:61:2e:62:02:af:91:70:08:23:23:71:7f:0c:6d:e3:fb:
         53:a8:21:b8:23:7d:96:6f:ed:53:68:a0:46:49:9a:63:f6:2e:
         27:e3:66:b0:ad:9a:65:54:dd:6f:87:c8:56:cc:58:62:1d:4c:
         dc:e7:f6:98:83:f3:45:98:40:69:85:cf:78:7f:ac:19:40:1e:
         2e:b9:57:79:97:d0:36:c5:86:fb:99:6f:77:c3:59:6d:d3:0c:
         cd:dd:32:a3
-----BEGIN CERTIFICATE-----
MIIDHjCCAgagAwIBAgIBATANBgkqhkiG9w0BAQsFADAvMQwwCgYDVQQKDANVUzMx
ETAPBgNVBAsMCFVTMyBVbml0MQwwCgYDVQQDDANVUzMwIhgPMjAxOTAxMjIyMzQ1
MDdaGA8yMDE5MDUwMzIzNDUwN1owTzELMAkGA1UECAwCV0ExDTALBgNVBAoMBFRl
c3QxEjAQBgNVBAsMCVRlc3QgVW5pdDEKMAgGA1UEAwwBYTERMA8GA1UEAwwIdGVz
dC5jb20wggEiMA0GCSqGSIb3DQEBAQUAA4IBDwAwggEKAoIBAQDZuSX7seXDPsmf
VIGYWkflxImrSEZlNtGlfinVBrRj8q7gyxJjsQ7u6hWKdo0LBRW4SO0Jvlofe2gt
dWJXZKrxHhSQsDeQ9dpal8jjaPcmg6Q+pxiRbmwZgFzMcsaYfrI/wq9ScrlY38S3
5WTQ2IZYRcCbMA16xBcLI30jmn37neGosX6BgDo/0tzD0z2b7FFios5kowS2RvJg
Nzc3HrFsPTGGx5CLc5BKwV6mY8gODtzaBrjEvwV1DOSvFiywLNq4nA8BfZ0MurXo
0RrNr2g1Kkwhi1LjqGB6gjKZuY3ILOUWk5XX/CdN1i6SkvQ3O+iO7eSSLik97Wke
VjsWz2NdAgMBAAGjITAfMB0GA1UdEQQWMBSCCHRlc3QuY29tgghibGFoLmNvbTAN
BgkqhkiG9w0BAQsFAAOCAQEAsivLeHMnECll0ZH/VnzWpT+/PFNQBwFIKyd7BykI
yMh5wIMY04mLJoFlme0ZHxTgPNQkpmBlmh4zwWpAa2F6fuFvjI7PX3eu9te9O9J1
hkAWaEs+xRd8GREQRBR5a2aVp/1+f8MgctReEViKKVWVGewt/GlLm5m9FdddH96h
Q+rJJhg+z7hqVkfEsNYdccjhwFc/Hp2MEMHX0Kwu4OiSkvvB4zVhLmICr5FwCCMj
cX8MbeP7U6ghuCN9lm/tU2igRkmaY/YuJ+NmsK2aZVTdb4fIVsxYYh1M3Of2mIPz
RZhAaYXPeH+sGUAeLrlXeZfQNsWG+5lvd8NZbdMMzd0yow==
-----END CERTIFICATE-----
