Certificate:
    Data:
        Version: 3 (0x2)
        Serial Number: 1 (0x1)
    Signature Algorithm: sha256WithRSAEncryption
        Issuer: O=US3, OU=US3 Unit, CN=US3
        Validity
            Not Before: Jan 22 01:00:58 2019 GMT
            Not After : May  3 01:00:58 2019 GMT
        Subject: ST=WA, O=Test, OU=Test Unit, CN=a, CN=test.com
        Subject Public Key Info:
            Public Key Algorithm: rsaEncryption
                Public-Key: (2048 bit)
                Modulus:
                    00:c0:b0:37:37:2f:4c:c0:ea:53:e8:f6:9f:23:04:
                    43:9f:94:ee:54:96:fd:6a:fe:51:b3:7a:e2:af:13:
                    87:0b:27:5a:d6:35:8c:83:a0:f5:36:a5:dd:e2:39:
                    4b:e1:14:8c:22:f7:f0:b9:66:87:10:b0:d8:07:f6:
                    dd:09:11:9a:11:1f:cf:b0:63:d3:3a:39:f3:da:f2:
                    d9:3f:4c:0a:dc:f8:8e:28:52:68:dd:a8:58:71:27:
                    70:10:b2:2c:32:4f:69:12:3e:c5:eb:9f:c9:e2:ab:
                    17:2e:64:73:15:d2:54:f7:96:8c:6e:09:04:44:a5:
                    97:8d:ba:1b:6f:c4:a2:fc:3f:28:ab:c7:5d:fd:e0:
                    85:29:54:0f:f3:88:0c:1b:4b:32:c5:ec:86:a1:d2:
                    8b:81:0f:d3:17:07:58:b0:ac:eb:fe:bf:d8:27:1f:
                    9d:ec:b1:8f:94:7f:4c:74:64:1d:c0:cd:4a:fa:d7:
                    75:8f:2b:d0:08:cd:b9:3b:a4:2e:db:90:0a:5e:8d:
                    f1:a8:fe:5d:f1:6c:66:15:e4:9c:92:59:1e:64:c1:
                    20:f9:17:f4:de:ea:d1:7a:90:6d:00:04:01:93:07:
                    c7:59:6b:b1:16:f6:78:60:32:62:b7:21:aa:e7:b1:
                    7b:b1:15:51:05:ac:ae:23:53:aa:a6:ae:a9:04:28:
                    f1:b3
                Exponent: 65537 (0x10001)
        X509v3 extensions:
            X509v3 Subject Alternative Name: 
                DNS:test.com, DNS:blah.com
    Signature Algorithm: sha256WithRSAEncryption
         c7:8e:cb:0a:32:64:25:7b:c6:8b:5f:44:e3:fe:ac:3a:7b:24:
         45:01:a5:2b:27:77:93:8e:23:b4:64:ed:93:0a:48:9c:13:05:
         b8:23:cc:8d:68:2d:a5:1d:b2:b3:53:d7:37:61:4a:d3:1e:db:
         d9:61:60:be:f4:0f:fe:f5:19:a7:c2:88:89:3f:5e:96:a8:7b:
         e1:dd:02:35:34:6b:01:53:bf:b5:d7:9e:19:fc:ca:f1:12:fc:
         32:53:3b:a2:49:cb:49:ad:ba:a2:6b:17:18:19:02:3c:84:2f:
         79:ec:ea:bf:2d:ad:66:63:d2:14:dc:8c:16:af:14:9b:e6:ff:
         b8:29:c8:a3:e6:e3:ab:de:a1:19:b6:c7:31:05:61:e4:ce:d8:
         be:ed:54:6a:fe:55:2f:a7:ba:68:46:d1:7d:32:86:96:46:69:
         c2:8e:24:77:9f:58:b1:76:f4:35:9b:53:77:0e:db:53:32:df:
         cf:e6:f4:6a:c5:eb:2b:79:13:88:96:0b:3a:f8:2b:53:1d:44:
         63:fc:51:04:6c:b5:43:be:86:f4:1c:0c:f5:6b:af:5d:f1:66:
         9c:62:62:42:ca:0d:5d:b4:10:85:22:9f:4e:7c:a3:ee:f6:f5:
         2e:a7:6f:ef:eb:79:cc:e0:91:ac:d0:d3:c8:92:8e:75:5d:0e:
         f8:b3:e3:d5
-----BEGIN CERTIFICATE-----
MIIDHjCCAgagAwIBAgIBATANBgkqhkiG9w0BAQsFADAvMQwwCgYDVQQKDANVUzMx
ETAPBgNVBAsMCFVTMyBVbml0MQwwCgYDVQQDDANVUzMwIhgPMjAxOTAxMjIwMTAw
NThaGA8yMDE5MDUwMzAxMDA1OFowTzELMAkGA1UECAwCV0ExDTALBgNVBAoMBFRl
c3QxEjAQBgNVBAsMCVRlc3QgVW5pdDEKMAgGA1UEAwwBYTERMA8GA1UEAwwIdGVz
dC5jb20wggEiMA0GCSqGSIb3DQEBAQUAA4IBDwAwggEKAoIBAQDAsDc3L0zA6lPo
9p8jBEOflO5Ulv1q/lGzeuKvE4cLJ1rWNYyDoPU2pd3iOUvhFIwi9/C5ZocQsNgH
9t0JEZoRH8+wY9M6OfPa8tk/TArc+I4oUmjdqFhxJ3AQsiwyT2kSPsXrn8niqxcu
ZHMV0lT3loxuCQREpZeNuhtvxKL8Pyirx1394IUpVA/ziAwbSzLF7Iah0ouBD9MX
B1iwrOv+v9gnH53ssY+Uf0x0ZB3AzUr613WPK9AIzbk7pC7bkApejfGo/l3xbGYV
5JySWR5kwSD5F/Te6tF6kG0ABAGTB8dZa7EW9nhgMmK3IarnsXuxFVEFrK4jU6qm
rqkEKPGzAgMBAAGjITAfMB0GA1UdEQQWMBSCCHRlc3QuY29tgghibGFoLmNvbTAN
BgkqhkiG9w0BAQsFAAOCAQEAx47LCjJkJXvGi19E4/6sOnskRQGlKyd3k44jtGTt
kwpInBMFuCPMjWgtpR2ys1PXN2FK0x7b2WFgvvQP/vUZp8KIiT9elqh74d0CNTRr
AVO/tdeeGfzK8RL8MlM7oknLSa26omsXGBkCPIQveezqvy2tZmPSFNyMFq8Um+b/
uCnIo+bjq96hGbbHMQVh5M7Yvu1Uav5VL6e6aEbRfTKGlkZpwo4kd59YsXb0NZtT
dw7bUzLfz+b0asXrK3kTiJYLOvgrUx1EY/xRBGy1Q76G9BwM9WuvXfFmnGJiQsoN
XbQQhSKfTnyj7vb1Lqdv7+t5zOCRrNDTyJKOdV0O+LPj1Q==
-----END CERTIFICATE-----
