Certificate:
    Data:
        Version: 3 (0x2)
        Serial Number: 2 (0x2)
    Signature Algorithm: sha256WithRSAEncryption
        Issuer: O=US3, OU=US3 Unit, CN=US3
        Validity
            Not Before: Jan 22 23:45:07 2019 GMT
            Not After : May  3 23:45:07 2019 GMT
        Subject: ST=WA, O=Test, OU=Test Unit, CN=b, CN=test.com
        Subject Public Key Info:
            Public Key Algorithm: rsaEncryption
                Public-Key: (2048 bit)
                Modulus:
                    00:ab:45:44:04:91:7e:d8:1c:82:07:1d:fc:62:95:
                    f1:17:43:c0:a3:64:88:23:8d:8b:e7:ad:85:3f:9e:
                    b3:2d:38:f0:2e:f3:61:59:b8:45:63:aa:ec:d2:d9:
                    e6:d7:9c:6b:bf:3a:0d:3f:45:51:3b:96:08:ad:71:
                    61:6c:8a:7d:f6:25:10:a0:ee:ef:96:4b:4a:f7:ad:
                    54:f9:2b:cc:89:31:14:79:ad:ab:89:e8:f8:b5:89:
                    e1:dd:17:7e:70:00:ab:b7:fe:f4:42:f4:50:7a:83:
                    72:df:06:f9:d3:4f:9a:44:8e:b4:6c:fb:f6:53:a0:
                    b5:59:a7:07:40:52:7b:c9:36:77:97:a5:30:87:61:
                    a6:c2:26:1e:48:9e:5d:d3:69:d3:64:ef:19:3a:1b:
                    56:40:65:13:f2:8a:07:14:46:82:7a:86:12:6b:d2:
                    5a:17:8c:08:3d:96:8a:b2:00:1b:02:82:08:57:8f:
                    3c:58:4b:0a:f6:82:0f:21:01:5c:0c:49:37:4f:85:
                    19:2c:27:46:27:4f:a6:9d:79:6e:f3:b7:cf:55:fd:
                    a8:b0:0f:0c:e2:a3:fe:f9:44:1a:e7:ec:df:a2:d4:
                    26:d3:fd:69:5d:b7:f8:c9:c3:59:5e:f1:1e:6f:b7:
                    d7:5d:06:95:1f:4c:69:d9:72:9b:83:8f:37:b6:37:
                    60:f5
                Exponent: 65537 (0x10001)
        X509v3 extensions:
            X509v3 Subject Alternative Name: 
                DNS:test.com, DNS:blah.com
    Signature Algorithm: sha256WithRSAEncryption
         96:99:c3:d2:7a:b6:8e:be:a8:40:6e:e5:17:34:aa:1f:3f:c2:
         d9:d3:47:34:15:ca:31:41:6c:9a:40:e3:e4:85:e4:d5:c9:7d:
         b0:92:8d:ab:ca:3c:d5:6e:3a:77:87:bb:f9:c1:af:48:37:c7:
         fc:69:a7:9e:40:ef:fc:d9:26:b0:12:b8:1c:4b:63:f4:eb:b6:
         ca:da:1a:f0:ad:31:52:94:27:bd:75:9a:07:aa:2a:3b:1a:9c:
         e5:3d:54:10:8a:22:1d:40:f7:d0:ec:7c:bc:01:bc:51:f7:78:
         d4:2f:45:e3:98:f9:d3:32:a7:aa:34:9d:82:d2:c4:9b:fc:59:
         96:14:26:bc:3a:22:a0:72:83:b5:92:52:96:1c:7c:49:62:a0:
         47:f7:fc:88:81:2b:e6:5e:20:7c:a5:62:d9:65:a0:2c:54:8e:
         31:f1:41:32:04:01:0d:34:8e:b1:6b:81:c8:9e:82:6f:19:f7:
         01:e6:69:39:e3:4c:36:2a:84:db:2a:46:a2:d4:57:54:9c:7b:
         84:99:38:48:fc:03:77:83:05:a0:54:cc:65:40:b2:39:e7:fd:
         d9:0b:87:a6:2a:78:60:1c:1b:e9:2b:7a:a1:f9:6e:65:17:0f:
         e4:2b:d6:27:e5:71:4d:27:4a:c5:f1:da:1e:6c:5c:6c:ef:2e:
         6c:d1:d5:58
-----BEGIN CERTIFICATE-----
MIIDHjCCAgagAwIBAgIBAjANBgkqhkiG9w0BAQsFADAvMQwwCgYDVQQKDANVUzMx
ETAPBgNVBAsMCFVTMyBVbml0MQwwCgYDVQQDDANVUzMwIhgPMjAxOTAxMjIyMzQ1
MDdaGA8yMDE5MDUwMzIzNDUwN1owTzELMAkGA1UECAwCV0ExDTALBgNVBAoMBFRl
c3QxEjAQBgNVBAsMCVRlc3QgVW5pdDEKMAgGA1UEAwwBYjERMA8GA1UEAwwIdGVz
dC5jb20wggEiMA0GCSqGSIb3DQEBAQUAA4IBDwAwggEKAoIBAQCrRUQEkX7YHIIH
HfxilfEXQ8CjZIgjjYvnrYU/nrMtOPAu82FZuEVjquzS2ebXnGu/Og0/RVE7lgit
cWFsin32JRCg7u+WS0r3rVT5K8yJMRR5rauJ6Pi1ieHdF35wAKu3/vRC9FB6g3Lf
BvnTT5pEjrRs+/ZToLVZpwdAUnvJNneXpTCHYabCJh5Inl3TadNk7xk6G1ZAZRPy
igcURoJ6hhJr0loXjAg9loqyABsCgghXjzxYSwr2gg8hAVwMSTdPhRksJ0YnT6ad
eW7zt89V/aiwDwzio/75RBrn7N+i1CbT/Wldt/jJw1le8R5vt9ddBpUfTGnZcpuD
jze2N2D1AgMBAAGjITAfMB0GA1UdEQQWMBSCCHRlc3QuY29tgghibGFoLmNvbTAN
BgkqhkiG9w0BAQsFAAOCAQEAlpnD0nq2jr6oQG7lFzSqHz/C2dNHNBXKMUFsmkDj
5IXk1cl9sJKNq8o81W46d4e7+cGvSDfH/GmnnkDv/NkmsBK4HEtj9Ou2ytoa8K0x
UpQnvXWaB6oqOxqc5T1UEIoiHUD30Ox8vAG8Ufd41C9F45j50zKnqjSdgtLEm/xZ
lhQmvDoioHKDtZJSlhx8SWKgR/f8iIEr5l4gfKVi2WWgLFSOMfFBMgQBDTSOsWuB
yJ6Cbxn3AeZpOeNMNiqE2ypGotRXVJx7hJk4SPwDd4MFoFTMZUCyOef92QuHpip4
YBwb6St6ofluZRcP5CvWJ+VxTSdKxfHaHmxcbO8ubNHVWA==
-----END CERTIFICATE-----
