Certificate:
    Data:
        Version: 3 (0x2)
        Serial Number: 2 (0x2)
    Signature Algorithm: sha256WithRSAEncryption
        Issuer: O=US3, OU=US3 Unit, CN=US3
        Validity
            Not Before: Jan 22 01:00:58 2019 GMT
            Not After : May  3 01:00:58 2019 GMT
        Subject: ST=WA, O=Test, OU=Test Unit, CN=b, CN=test.com
        Subject Public Key Info:
            Public Key Algorithm: rsaEncryption
                Public-Key: (2048 bit)
                Modulus:
                    00:b6:f9:d9:b5:40:be:03:90:ed:d1:e8:94:ba:f1:
                    f9:1a:58:3d:ec:c7:54:b5:27:c7:6d:6a:c7:d8:35:
                    39:9a:d1:10:c8:9e:2f:8c:e4:66:d4:de:e2:eb:3d:
                    5f:ab:a7:5f:9d:e2:6d:a9:4b:f4:d9:ee:db:6e:82:
                    d7:94:24:1a:f9:dd:01:b1:37:aa:0c:4e:9b:ba:e0:
                    1a:61:a1:95:98:df:ad:f8:1c:89:40:1c:73:cc:f2:
                    6c:ee:56:ab:da:7d:ae:56:62:53:a2:a0:4b:6a:6a:
                    f8:b7:78:c3:ca:d7:03:19:3d:26:8a:69:aa:81:27:
                    87:eb:fb:42:03:b9:93:f0:1e:9c:64:9b:3b:96:af:
                    61:c8:01:31:28:ba:75:c2:73:1d:c9:7b:97:db:7e:
                    07:63:ba:54:a3:5a:f0:69:7b:25:11:26:f7:07:66:
                    7e:7e:33:4c:e5:d8:b7:af:41:76:a6:12:e0:2f:61:
                    f1:0d:30:d6:a4:01:f9:47:51:46:aa:7b:cd:b3:d3:
                    55:1b:63:d5:1e:07:e2:c3:a1:e2:20:6f:35:27:3e:
                    4d:36:5d:b8:99:31:9c:c7:72:46:04:2d:27:a3:80:
                    30:c9:81:a8:06:ec:b7:fd:58:97:bc:4f:32:9f:d1:
                    cb:d1:6c:c6:b3:ab:6c:9c:f2:17:41:1c:20:4e:8b:
                    9e:cb
                Exponent: 65537 (0x10001)
        X509v3 extensions:
            X509v3 Subject Alternative Name: 
                DNS:test.com, DNS:blah.com
    Signature Algorithm: sha256WithRSAEncryption
         6a:8d:12:6f:a2:da:d4:02:fa:13:9c:51:94:09:1d:41:1c:7c:
         88:33:8c:72:e6:7a:c5:91:25:4b:eb:fc:dc:53:a0:09:56:b9:
         f6:57:37:2d:05:f6:14:5a:bd:2d:7e:55:fd:6b:ba:16:0a:d9:
         8b:d1:70:b0:a7:27:f2:87:d0:81:49:fd:72:85:cc:f9:c1:fd:
         e2:3c:ba:34:04:22:97:37:24:de:4e:54:f8:98:25:35:a0:fe:
         40:d4:70:cf:b8:9a:92:db:8f:4d:f5:82:eb:20:36:e1:93:9a:
         97:99:5b:88:4e:98:44:6b:0d:bc:4e:40:f7:a0:c3:42:f8:52:
         c0:76:eb:be:d3:e0:b6:c0:ef:e3:12:78:2a:76:b1:05:a0:b1:
         05:c6:6b:dd:e1:27:60:7e:f9:f5:33:41:dc:29:48:e6:5d:71:
         48:db:e4:0e:80:a7:7d:5d:34:3f:6f:8d:0b:0e:73:df:3a:34:
         93:c5:16:55:ef:39:12:ae:71:79:54:69:5a:37:37:c8:0f:5f:
         90:a9:81:69:19:10:6d:20:f7:1f:ae:40:89:1d:4d:33:26:a6:
         7c:e4:8c:ce:28:8b:da:85:77:78:e2:e0:ac:cd:da:34:e3:35:
         0e:0a:90:93:63:bd:92:ba:1b:ce:31:6d:a4:ff:1e:4e:2a:ca:
         62:52:ca:c1
-----BEGIN CERTIFICATE-----
MIIDHjCCAgagAwIBAgIBAjANBgkqhkiG9w0BAQsFADAvMQwwCgYDVQQKDANVUzMx
ETAPBgNVBAsMCFVTMyBVbml0MQwwCgYDVQQDDANVUzMwIhgPMjAxOTAxMjIwMTAw
NThaGA8yMDE5MDUwMzAxMDA1OFowTzELMAkGA1UECAwCV0ExDTALBgNVBAoMBFRl
c3QxEjAQBgNVBAsMCVRlc3QgVW5pdDEKMAgGA1UEAwwBYjERMA8GA1UEAwwIdGVz
dC5jb20wggEiMA0GCSqGSIb3DQEBAQUAA4IBDwAwggEKAoIBAQC2+dm1QL4DkO3R
6JS68fkaWD3sx1S1J8dtasfYNTma0RDIni+M5GbU3uLrPV+rp1+d4m2pS/TZ7ttu
gteUJBr53QGxN6oMTpu64BphoZWY3634HIlAHHPM8mzuVqvafa5WYlOioEtqavi3
eMPK1wMZPSaKaaqBJ4fr+0IDuZPwHpxkmzuWr2HIATEounXCcx3Je5fbfgdjulSj
WvBpeyURJvcHZn5+M0zl2LevQXamEuAvYfENMNakAflHUUaqe82z01UbY9UeB+LD
oeIgbzUnPk02XbiZMZzHckYELSejgDDJgagG7Lf9WJe8TzKf0cvRbMazq2yc8hdB
HCBOi57LAgMBAAGjITAfMB0GA1UdEQQWMBSCCHRlc3QuY29tgghibGFoLmNvbTAN
BgkqhkiG9w0BAQsFAAOCAQEAao0Sb6La1AL6E5xRlAkdQRx8iDOMcuZ6xZElS+v8
3FOgCVa59lc3LQX2FFq9LX5V/Wu6FgrZi9FwsKcn8ofQgUn9coXM+cH94jy6NAQi
lzck3k5U+JglNaD+QNRwz7iaktuPTfWC6yA24ZOal5lbiE6YRGsNvE5A96DDQvhS
wHbrvtPgtsDv4xJ4KnaxBaCxBcZr3eEnYH759TNB3ClI5l1xSNvkDoCnfV00P2+N
Cw5z3zo0k8UWVe85Eq5xeVRpWjc3yA9fkKmBaRkQbSD3H65AiR1NMyamfOSMziiL
2oV3eOLgrM3aNOM1DgqQk2O9krobzjFtpP8eTirKYlLKwQ==
-----END CERTIFICATE-----
