Certificate:
    Data:
        Version: 3 (0x2)
        Serial Number: 6 (0x6)
    Signature Algorithm: sha256WithRSAEncryption
        Issuer: O=US3, OU=US3 Unit, CN=US3
        Validity
            Not Before: Jan 13 23:45:08 2019 GMT
            Not After : Jan 18 23:45:08 2019 GMT
        Subject: ST=WA, O=Test, OU=Test Unit, CN=badalt, CN=test.com
        Subject Public Key Info:
            Public Key Algorithm: rsaEncryption
                Public-Key: (2048 bit)
                Modulus:
                    00:d7:37:ce:34:76:03:c5:35:bd:04:64:04:4d:d5:
                    22:ed:b9:34:ac:42:a2:54:41:da:09:72:24:66:a9:
                    30:b1:58:f2:3c:8b:54:d4:09:9f:98:6b:61:02:39:
                    7c:fd:b7:74:b4:7b:b9:51:50:fe:0b:96:38:7d:c9:
                    43:85:33:16:00:45:60:46:95:26:2f:17:92:89:01:
                    91:15:3f:db:e7:13:06:08:24:a2:6a:e1:c7:ee:54:
                    ba:f1:41:de:38:ab:bf:2c:ea:5e:67:41:e7:6c:8c:
                    45:4c:6f:92:58:ff:07:80:bf:55:1e:4c:14:a2:36:
                    a6:65:ed:78:00:57:cc:47:09:51:92:67:da:2a:45:
                    eb:bf:ba:ef:d7:5a:db:a7:70:53:da:33:0f:12:1e:
                    89:7b:3b:92:78:ba:32:64:37:26:91:ec:1e:68:27:
                    7f:78:4e:d7:e1:f3:86:d3:d4:dc:23:8d:7a:8e:b1:
                    41:66:6a:51:60:e6:5b:37:da:f4:89:67:ab:a9:1b:
                    76:46:7e:0b:6c:5a:fe:55:29:1f:30:7f:ec:42:38:
                    ec:78:0f:88:8b:57:4c:8b:fb:1d:d8:56:0e:50:33:
                    70:a1:ff:7c:92:22:b5:08:90:f5:0d:8e:d8:32:9a:
                    b7:0e:47:4a:3e:5e:bc:ae:d3:73:2d:32:e7:d9:6b:
                    1d:f3
                Exponent: 65537 (0x10001)
        X509v3 extensions:
            X509v3 Subject Alternative Name: 
                DNS:test.com, DNS:blah.com
    Signature Algorithm: sha256WithRSAEncryption
         0d:8a:08:3a:e0:01:64:10:ef:9f:84:da:5a:87:3e:35:d9:5e:
         c0:03:bf:94:ec:bb:0b:6a:0c:80:0f:4b:82:0f:0c:d3:8c:a8:
         b8:8a:32:4f:a6:b5:9e:ec:cc:24:80:ee:5d:d6:82:0b:0e:d3:
         15:ec:a3:86:e9:6b:75:07:7d:06:68:06:3d:db:02:ad:22:23:
         9f:73:4b:f2:35:69:17:c1:bd:3d:fa:77:5d:58:ee:b5:81:16:
         79:c8:d6:49:a6:0f:e6:8c:1d:fa:48:2c:43:17:d3:55:2d:f0:
         69:23:61:c1:36:53:f9:ac:a9:38:b7:c7:53:f4:07:d5:f9:78:
         bc:e9:9c:22:17:c6:12:28:d5:20:cb:7a:9c:a8:e6:32:1c:ce:
         a6:d9:09:39:84:cd:c1:62:ff:30:88:ca:fa:b4:fa:67:36:80:
         13:03:25:28:b0:f3:28:f4:1f:ee:95:4a:2d:12:4f:96:fd:ad:
         d8:92:df:1a:8e:1c:87:cf:d4:3a:d8:2e:05:14:05:b2:d8:90:
         c6:fa:84:2c:29:eb:b1:7b:1b:dc:67:dd:cf:34:a0:e8:03:f9:
         04:b6:9f:34:a9:1e:cc:fb:bb:fb:40:fb:ef:c5:00:99:76:17:
         71:59:07:dc:3c:4b:76:f3:4b:bd:a7:20:ed:aa:66:a7:fe:16:
         75:fd:7b:6f
-----BEGIN CERTIFICATE-----
MIIDIzCCAgugAwIBAgIBBjANBgkqhkiG9w0BAQsFADAvMQwwCgYDVQQKDANVUzMx
ETAPBgNVBAsMCFVTMyBVbml0MQwwCgYDVQQDDANVUzMwIhgPMjAxOTAxMTMyMzQ1
MDhaGA8yMDE5MDExODIzNDUwOFowVDELMAkGA1UECAwCV0ExDTALBgNVBAoMBFRl
c3QxEjAQBgNVBAsMCVRlc3QgVW5pdDEPMA0GA1UEAwwGYmFkYWx0MREwDwYDVQQD
DAh0ZXN0LmNvbTCCASIwDQYJKoZIhvcNAQEBBQADggEPADCCAQoCggEBANc3zjR2
A8U1vQRkBE3VIu25NKxColRB2glyJGapMLFY8jyLVNQJn5hrYQI5fP23dLR7uVFQ
/guWOH3JQ4UzFgBFYEaVJi8XkokBkRU/2+cTBggkomrhx+5UuvFB3jirvyzqXmdB
52yMRUxvklj/B4C/VR5MFKI2pmXteABXzEcJUZJn2ipF67+679da26dwU9ozDxIe
iXs7kni6MmQ3JpHsHmgnf3hO1+HzhtPU3CONeo6xQWZqUWDmWzfa9Ilnq6kbdkZ+
C2xa/lUpHzB/7EI47HgPiItXTIv7HdhWDlAzcKH/fJIitQiQ9Q2O2DKatw5HSj5e
vK7Tcy0y59lrHfMCAwEAAaMhMB8wHQYDVR0RBBYwFIIIdGVzdC5jb22CCGJsYWgu
Y29tMA0GCSqGSIb3DQEBCwUAA4IBAQANigg64AFkEO+fhNpahz412V7AA7+U7LsL
agyAD0uCDwzTjKi4ijJPprWe7MwkgO5d1oILDtMV7KOG6Wt1B30GaAY92wKtIiOf
c0vyNWkXwb09+nddWO61gRZ5yNZJpg/mjB36SCxDF9NVLfBpI2HBNlP5rKk4t8dT
9AfV+Xi86ZwiF8YSKNUgy3qcqOYyHM6m2Qk5hM3BYv8wiMr6tPpnNoATAyUosPMo
9B/ulUotEk+W/a3Ykt8ajhyHz9Q62C4FFAWy2JDG+oQsKeuxexvcZ93PNKDoA/kE
tp80qR7M+7v7QPvvxQCZdhdxWQfcPEt280u9pyDtqman/hZ1/Xtv
-----END CERTIFICATE-----
