Certificate:
    Data:
        Version: 3 (0x2)
        Serial Number: 1 (0x1)
    Signature Algorithm: sha256WithRSAEncryption
        Issuer: CN=US, O=US, OU=US Unit
        Validity
            Not Before: Jan 23 23:45:07 2019 GMT
            Not After : Jan 23 23:45:07 2020 GMT
        Subject: O=US2, OU=US2 Unit, CN=US2
        Subject Public Key Info:
            Public Key Algorithm: rsaEncryption
                Public-Key: (2048 bit)
                Modulus:
                    00:bf:ad:3c:d2:1f:e2:f8:27:b3:10:3a:54:7d:db:
                    4c:87:a9:a9:aa:b1:9b:1e:1d:68:05:b1:ca:72:3c:
                    25:7d:0d:0f:bf:6f:4b:97:ff:a3:76:00:6d:3b:c0:
                    66:4c:b4:33:8f:bd:6a:04:45:aa:9c:41:76:96:d6:
                    33:e9:ef:4f:11:d4:88:7c:d1:a7:ef:e1:57:40:a6:
                    b8:1e:5e:c3:e7:8a:4c:d8:8c:05:4c:76:23:90:da:
                    5a:55:e8:fc:5d:6c:df:87:5a:6b:19:30:0e:97:46:
                    bb:ae:74:19:15:29:98:6d:3b:61:c5:6d:0d:ba:a5:
                    26:91:37:43:9f:63:4a:4b:a8:74:72:bf:29:94:3b:
                    bd:1c:70:20:83:2a:2e:e2:0f:74:87:b4:a7:ef:4c:
                    21:f3:0a:c9:6a:a0:67:cd:58:5c:f1:68:a7:95:ee:
                    34:6e:1f:1e:2f:fc:6c:aa:6c:70:fc:fe:6d:15:44:
                    05:49:9d:c6:c2:38:ac:8b:b2:09:94:f3:0a:09:42:
                    4b:83:49:e4:ab:79:f6:38:0d:5e:67:37:de:20:8a:
                    66:a5:24:2c:b7:fa:e2:2d:24:ad:3b:0e:06:de:6e:
                    24:5b:ef:26:d7:65:51:68:ab:80:cb:3d:97:fc:3a:
                    6c:f8:39:d9:13:f2:63:62:0d:1f:50:2b:b7:f0:47:
                    3d:e1
                Exponent: 65537 (0x10001)
        X509v3 extensions:
            X509v3 Subject Key Identifier: 
                90:7C:94:ED:17:AF:52:63:37:1E:0F:7C:16:EB:B2:98:99:3C:06:D9
            X509v3 Authority Key Identifier: 
                keyid:FC:A5:91:AF:DD:75:56:16:2E:2F:49:AF:EA:A3:74:EB:76:74:43:E9

            X509v3 Basic Constraints: critical
                CA:TRUE
    Signature Algorithm: sha256WithRSAEncryption
         98:b7:20:b2:d9:b6:cb:a9:0c:03:12:da:bf:f2:dd:fe:75:52:
         9b:69:59:2f:a0:e4:c5:8a:6e:c0:6f:9a:de:9b:83:d8:e4:ef:
         98:05:1a:ed:3b:7b:de:22:80:41:9a:f9:43:c6:e2:c4:49:43:
         00:48:c1:c9:79:ff:9a:52:43:db:6a:90:77:19:f9:8c:5c:0b:
         94:ef:fd:b0:35:00:a2:72:d5:b4:f7:4f:cc:11:4a:3c:f8:08:
         52:a2:0c:b8:82:fd:42:9f:6e:32:90:68:0c:75:ef:a8:18:83:
         f0:ed:f1:a5:e5:03:e8:9f:ac:13:86:69:76:4c:5d:da:73:56:
         74:6d:b1:5b:cd:ae:9a:19:6f:f9:8f:e4:95:ce:a8:5e:77:30:
         5b:5b:ed:81:4d:55:c1:83:c9:76:81:e8:91:45:af:a9:ff:0a:
         10:b2:91:60:d1:03:4c:70:b0:62:db:9f:72:63:fe:5c:4a:70:
         55:a0:02:a3:82:b6:8d:13:c6:7b:1a:71:87:79:4b:65:41:c8:
         6f:85:8a:f6:fc:e2:4a:84:d3:8b:20:5e:f9:73:e0:18:d6:1c:
         7f:7b:73:21:c6:2e:a4:d6:03:dc:a3:2c:48:4d:ea:76:98:43:
         05:a2:ab:71:8a:94:98:78:56:ae:69:4e:80:53:99:64:56:98:
         c4:93:fc:c8
-----BEGIN CERTIFICATE-----
MIIDKTCCAhGgAwIBAgIBATANBgkqhkiG9w0BAQsFADAsMQswCQYDVQQDDAJVUzEL
MAkGA1UECgwCVVMxEDAOBgNVBAsMB1VTIFVuaXQwHhcNMTkwMTIzMjM0NTA3WhcN
MjAwMTIzMjM0NTA3WjAvMQwwCgYDVQQKDANVUzIxETAPBgNVBAsMCFVTMiBVbml0
MQwwCgYDVQQDDANVUzIwggEiMA0GCSqGSIb3DQEBAQUAA4IBDwAwggEKAoIBAQC/
rTzSH+L4J7MQOlR920yHqamqsZseHWgFscpyPCV9DQ+/b0uX/6N2AG07wGZMtDOP
vWoERaqcQXaW1jPp708R1Ih80afv4VdAprgeXsPnikzYjAVMdiOQ2lpV6PxdbN+H
WmsZMA6XRruudBkVKZhtO2HFbQ26pSaRN0OfY0pLqHRyvymUO70ccCCDKi7iD3SH
tKfvTCHzCslqoGfNWFzxaKeV7jRuHx4v/GyqbHD8/m0VRAVJncbCOKyLsgmU8woJ
QkuDSeSrefY4DV5nN94gimalJCy3+uItJK07DgbebiRb7ybXZVFoq4DLPZf8Omz4
OdkT8mNiDR9QK7fwRz3hAgMBAAGjUzBRMB0GA1UdDgQWBBSQfJTtF69SYzceD3wW
67KYmTwG2TAfBgNVHSMEGDAWgBT8pZGv3XVWFi4vSa/qo3TrdnRD6TAPBgNVHRMB
Af8EBTADAQH/MA0GCSqGSIb3DQEBCwUAA4IBAQCYtyCy2bbLqQwDEtq/8t3+dVKb
aVkvoOTFim7Ab5rem4PY5O+YBRrtO3veIoBBmvlDxuLESUMASMHJef+aUkPbapB3
GfmMXAuU7/2wNQCictW090/MEUo8+AhSogy4gv1Cn24ykGgMde+oGIPw7fGl5QPo
n6wThml2TF3ac1Z0bbFbza6aGW/5j+SVzqhedzBbW+2BTVXBg8l2geiRRa+p/woQ
spFg0QNMcLBi259yY/5cSnBVoAKjgraNE8Z7GnGHeUtlQchvhYr2/OJKhNOLIF75
c+AY1hx/e3Mhxi6k1gPcoyxITep2mEMFoqtxipSYeFauaU6AU5lkVpjEk/zI
-----END CERTIFICATE-----
