Certificate:
    Data:
        Version: 3 (0x2)
        Serial Number: 5 (0x5)
    Signature Algorithm: sha256WithRSAEncryption
        Issuer: O=US3, OU=US3 Unit, CN=US3
        Validity
            Not Before: Jan 13 23:45:08 2019 GMT
            Not After : Jan 18 23:45:08 2019 GMT
        Subject: ST=WA, O=Test, OU=Test Unit, CN=expired, CN=test.com
        Subject Public Key Info:
            Public Key Algorithm: rsaEncryption
                Public-Key: (2048 bit)
                Modulus:
                    00:cc:95:b8:ef:b6:77:af:72:7b:11:f7:4c:b9:7c:
                    15:2b:80:c3:a4:e8:7f:bd:c5:54:35:95:70:4b:02:
                    9e:28:a5:ca:31:e5:33:f6:81:d2:b9:3a:e4:b4:f2:
                    f7:13:cc:db:81:4e:0a:a9:7d:25:d7:c8:b7:8e:02:
                    b9:bf:ea:cd:20:4c:b5:d9:73:03:db:84:8b:a4:ea:
                    0b:04:91:26:34:0c:8d:1c:d9:ff:8d:ae:96:79:ef:
                    2b:f1:e1:ab:45:51:b9:b2:13:b9:2f:86:5f:63:f0:
                    ba:ff:3e:18:b2:4d:5d:4f:e4:2c:61:e6:6e:68:6f:
                    72:79:b1:ba:7a:0a:72:a1:9e:2d:14:e9:fc:8c:45:
                    e2:76:a3:49:45:f9:ef:d0:66:b0:16:e7:02:a5:8e:
                    74:65:c7:73:a3:d3:d1:c8:18:07:c2:88:72:06:f1:
                    15:1c:1f:b0:8d:8b:a1:de:5a:3e:f7:ae:04:88:d1:
                    cd:1a:98:29:77:cb:f8:1c:2c:4a:2c:06:95:1a:64:
                    3b:ea:aa:b9:8a:ec:70:7e:3c:d3:ab:7f:cd:3c:55:
                    39:c1:b2:6a:fe:f0:0e:f0:94:4a:8d:0e:ee:cf:39:
                    fd:6f:4d:1c:42:57:3a:28:dc:e9:dd:52:16:c3:13:
                    7a:2b:49:a7:d0:35:d5:55:38:a1:9b:c8:f8:7d:38:
                    e1:bf
                Exponent: 65537 (0x10001)
        X509v3 extensions:
            X509v3 Subject Alternative Name: 
                DNS:test.com, DNS:blah.com
    Signature Algorithm: sha256WithRSAEncryption
         b1:34:c2:39:f3:dc:8b:0e:de:a0:ee:6c:0b:55:8d:3c:34:24:
         1c:9d:f0:e1:9c:be:8c:63:fd:3b:e5:51:a5:c0:bc:03:78:6c:
         74:34:b7:cd:f6:f4:02:a7:4b:b6:f0:ba:ad:cd:10:45:d0:47:
         3b:1b:99:19:d9:a5:73:1f:0b:59:af:6d:68:54:c7:fc:a6:69:
         65:a6:7a:fd:d0:b4:34:91:5b:04:90:68:21:d1:b3:cb:ca:df:
         64:c0:9d:0c:67:ea:63:cc:4d:61:2c:02:4a:a4:8a:4a:72:2c:
         73:b3:97:5a:5f:75:b2:7d:ad:84:ba:c0:20:57:f7:f2:c7:b5:
         f0:03:22:53:56:09:56:87:be:e6:fb:7a:a3:e7:01:11:7c:54:
         93:e1:d8:b5:5e:be:5c:b3:db:ce:89:c5:8f:78:71:88:49:a0:
         32:9b:71:f4:70:13:6c:af:30:1a:55:08:4e:ee:98:55:40:db:
         fd:f2:1b:e9:48:80:da:bf:f9:c3:5b:a2:ab:a1:3a:10:db:41:
         8d:26:74:cb:f8:a2:95:eb:49:1b:fc:32:27:6d:de:f7:62:d6:
         d6:7c:5a:ad:94:6d:fb:64:d0:20:2d:ec:09:7a:f0:57:91:c7:
         ea:a1:e6:1d:72:28:bd:29:7d:c9:d2:20:0d:2d:bf:08:ed:62:
         e3:c9:ef:7a
-----BEGIN CERTIFICATE-----
MIIDJDCCAgygAwIBAgIBBTANBgkqhkiG9w0BAQsFADAvMQwwCgYDVQQKDANVUzMx
ETAPBgNVBAsMCFVTMyBVbml0MQwwCgYDVQQDDANVUzMwIhgPMjAxOTAxMTMyMzQ1
MDhaGA8yMDE5MDExODIzNDUwOFowVTELMAkGA1UECAwCV0ExDTALBgNVBAoMBFRl
c3QxEjAQBgNVBAsMCVRlc3QgVW5pdDEQMA4GA1UEAwwHZXhwaXJlZDERMA8GA1UE
AwwIdGVzdC5jb20wggEiMA0GCSqGSIb3DQEBAQUAA4IBDwAwggEKAoIBAQDMlbjv
tnevcnsR90y5fBUrgMOk6H+9xVQ1lXBLAp4opcox5TP2gdK5OuS08vcTzNuBTgqp
fSXXyLeOArm/6s0gTLXZcwPbhIuk6gsEkSY0DI0c2f+NrpZ57yvx4atFUbmyE7kv
hl9j8Lr/PhiyTV1P5Cxh5m5ob3J5sbp6CnKhni0U6fyMReJ2o0lF+e/QZrAW5wKl
jnRlx3Oj09HIGAfCiHIG8RUcH7CNi6HeWj73rgSI0c0amCl3y/gcLEosBpUaZDvq
qrmK7HB+PNOrf808VTnBsmr+8A7wlEqNDu7POf1vTRxCVzoo3OndUhbDE3orSafQ
NdVVOKGbyPh9OOG/AgMBAAGjITAfMB0GA1UdEQQWMBSCCHRlc3QuY29tgghibGFo
LmNvbTANBgkqhkiG9w0BAQsFAAOCAQEAsTTCOfPciw7eoO5sC1WNPDQkHJ3w4Zy+
jGP9O+VRpcC8A3hsdDS3zfb0AqdLtvC6rc0QRdBHOxuZGdmlcx8LWa9taFTH/KZp
ZaZ6/dC0NJFbBJBoIdGzy8rfZMCdDGfqY8xNYSwCSqSKSnIsc7OXWl91sn2thLrA
IFf38se18AMiU1YJVoe+5vt6o+cBEXxUk+HYtV6+XLPbzonFj3hxiEmgMptx9HAT
bK8wGlUITu6YVUDb/fIb6UiA2r/5w1uiq6E6ENtBjSZ0y/iiletJG/wyJ23e92LW
1nxarZRt+2TQIC3sCXrwV5HH6qHmHXIovSl9ydIgDS2/CO1i48nveg==
-----END CERTIFICATE-----
