Certificate:
    Data:
        Version: 3 (0x2)
        Serial Number: 4 (0x4)
    Signature Algorithm: sha1WithRSAEncryption
        Issuer: O=US3, OU=US3 Unit, CN=US3
        Validity
            Not Before: Jan 22 23:45:08 2019 GMT
            Not After : May  3 23:45:08 2019 GMT
        Subject: ST=WA, O=Test, OU=Test Unit, CN=sha1, CN=test.com
        Subject Public Key Info:
            Public Key Algorithm: rsaEncryption
                Public-Key: (2048 bit)
                Modulus:
                    00:f0:9d:fe:e8:02:80:a3:a7:44:00:31:bd:19:3d:
                    68:aa:21:a3:3c:97:1e:ce:26:8b:b8:55:80:ba:21:
                    2d:ad:ed:08:17:dd:19:6d:f7:b3:b9:45:6b:1d:bc:
                    7b:5d:23:b0:f7:ea:e3:dc:ba:34:b7:ff:a6:22:4e:
                    74:e7:6b:a8:89:06:e5:ab:82:c6:e1:ba:aa:8a:79:
                    47:e7:e2:97:c3:27:43:7c:b1:7d:43:01:89:04:f0:
                    c0:20:b7:cd:3a:82:a1:3f:a9:73:cc:14:73:d8:dd:
                    5b:09:75:7e:5e:c8:12:c1:06:51:18:c6:10:7d:c9:
                    5b:99:a3:65:92:10:f5:f2:65:fb:15:f9:25:67:23:
                    71:c4:98:71:b0:89:5d:d3:19:ad:07:45:34:55:96:
                    5b:0d:91:c9:5d:e8:dc:97:83:cd:4a:9b:83:bd:d8:
                    c9:16:58:35:56:8a:b0:bf:51:8c:6e:98:9d:e8:5b:
                    a7:b7:8b:e6:f2:30:8d:99:16:6f:42:46:bc:3b:13:
                    82:61:4b:63:e5:7c:0e:67:5b:2e:37:56:29:4c:84:
                    83:2e:0b:40:e2:bd:b2:ba:9d:66:f1:f8:8a:90:93:
                    93:f4:2e:fd:d3:ba:26:c4:ef:f9:61:df:5c:f7:b6:
                    ed:dd:6e:93:b2:27:c7:95:b7:06:93:dd:f5:0c:b4:
                    7f:69
                Exponent: 65537 (0x10001)
        X509v3 extensions:
            X509v3 Subject Alternative Name: 
                DNS:test.com, DNS:blah.com
    Signature Algorithm: sha1WithRSAEncryption
         10:6c:fa:8b:87:18:6e:6b:90:df:3f:05:ee:d2:1d:3c:f8:4d:
         bc:53:26:65:eb:77:1a:7e:78:1f:9f:46:90:0b:72:82:ee:65:
         e5:c9:ba:66:d2:ab:14:b4:98:1f:92:0a:3c:2d:56:a1:9f:42:
         0d:61:10:9b:83:d0:12:34:d1:bd:29:2d:09:34:0f:3c:f6:26:
         0b:d6:f8:bc:1c:eb:f2:c4:eb:52:96:a9:1a:57:f3:74:a7:77:
         31:28:c2:66:69:94:fe:6f:ec:aa:c8:5b:55:33:f2:34:51:34:
         09:b0:d1:48:4a:05:60:b5:35:a5:73:fa:c4:1e:60:e8:9c:4c:
         0e:22:71:a1:9e:0c:a9:82:41:9f:2d:b1:b4:8e:59:59:a5:11:
         88:15:3f:51:3f:53:80:82:58:c0:66:25:bb:62:c0:0b:c4:1e:
         51:8f:24:ee:9e:d5:cf:70:36:dd:be:68:2f:a7:c0:51:c2:1b:
         f1:72:16:40:75:03:54:ad:4c:fa:8b:98:c4:aa:a5:2b:33:14:
         3f:64:14:37:9d:32:79:4e:8e:05:50:35:68:f2:24:fe:94:92:
         84:ae:7f:72:3c:8f:60:37:87:0f:66:c7:3d:fa:ed:dc:c6:93:
         e6:e3:15:65:0a:6d:6b:5c:c5:2d:a8:10:82:89:d4:b2:19:b9:
         34:81:1e:05
-----BEGIN CERTIFICATE-----
MIIDITCCAgmgAwIBAgIBBDANBgkqhkiG9w0BAQUFADAvMQwwCgYDVQQKDANVUzMx
ETAPBgNVBAsMCFVTMyBVbml0MQwwCgYDVQQDDANVUzMwIhgPMjAxOTAxMjIyMzQ1
MDhaGA8yMDE5MDUwMzIzNDUwOFowUjELMAkGA1UECAwCV0ExDTALBgNVBAoMBFRl
c3QxEjAQBgNVBAsMCVRlc3QgVW5pdDENMAsGA1UEAwwEc2hhMTERMA8GA1UEAwwI
dGVzdC5jb20wggEiMA0GCSqGSIb3DQEBAQUAA4IBDwAwggEKAoIBAQDwnf7oAoCj
p0QAMb0ZPWiqIaM8lx7OJou4VYC6IS2t7QgX3Rlt97O5RWsdvHtdI7D36uPcujS3
/6YiTnTna6iJBuWrgsbhuqqKeUfn4pfDJ0N8sX1DAYkE8MAgt806gqE/qXPMFHPY
3VsJdX5eyBLBBlEYxhB9yVuZo2WSEPXyZfsV+SVnI3HEmHGwiV3TGa0HRTRVllsN
kcld6NyXg81Km4O92MkWWDVWirC/UYxumJ3oW6e3i+byMI2ZFm9CRrw7E4JhS2Pl
fA5nWy43VilMhIMuC0DivbK6nWbx+IqQk5P0Lv3TuibE7/lh31z3tu3dbpOyJ8eV
twaT3fUMtH9pAgMBAAGjITAfMB0GA1UdEQQWMBSCCHRlc3QuY29tgghibGFoLmNv
bTANBgkqhkiG9w0BAQUFAAOCAQEAEGz6i4cYbmuQ3z8F7tIdPPhNvFMmZet3Gn54
H59GkAtygu5l5cm6ZtKrFLSYH5IKPC1WoZ9CDWEQm4PQEjTRvSktCTQPPPYmC9b4
vBzr8sTrUpapGlfzdKd3MSjCZmmU/m/sqshbVTPyNFE0CbDRSEoFYLU1pXP6xB5g
6JxMDiJxoZ4MqYJBny2xtI5ZWaURiBU/UT9TgIJYwGYlu2LAC8QeUY8k7p7Vz3A2
3b5oL6fAUcIb8XIWQHUDVK1M+ouYxKqlKzMUP2QUN50yeU6OBVA1aPIk/pSShK5/
cjyPYDeHD2bHPfrt3MaT5uMVZQpta1zFLagQgonUshm5NIEeBQ==
-----END CERTIFICATE-----
