Certificate:
    Data:
        Version: 3 (0x2)
        Serial Number: 4 (0x4)
    Signature Algorithm: sha1WithRSAEncryption
        Issuer: O=US3, OU=US3 Unit, CN=US3
        Validity
            Not Before: Jan 22 01:00:59 2019 GMT
            Not After : May  3 01:00:59 2019 GMT
        Subject: ST=WA, O=Test, OU=Test Unit, CN=sha1, CN=test.com
        Subject Public Key Info:
            Public Key Algorithm: rsaEncryption
                Public-Key: (2048 bit)
                Modulus:
                    00:bd:44:f2:6e:cd:56:39:de:b8:ed:33:b1:bc:07:
                    00:66:b9:6c:a4:1f:cd:08:e0:68:39:16:26:8c:61:
                    73:b9:01:a3:55:b7:ae:75:ce:dd:da:38:ec:5b:b7:
                    1d:b8:7d:b1:e6:ff:43:b0:a0:b6:44:df:bd:ea:46:
                    11:a2:f7:e1:84:b8:d9:1d:bc:34:69:a1:ec:af:db:
                    7f:20:43:ac:77:48:56:0d:0a:36:a2:83:ab:8d:5a:
                    61:8e:dd:d5:2c:16:d7:2f:44:b5:3e:a4:ae:3a:19:
                    3b:b4:22:27:79:08:3c:9f:03:b7:dd:12:32:4a:53:
                    d2:e8:10:9c:83:5d:1b:21:86:4a:c2:84:38:68:a8:
                    d8:dc:0d:6c:85:64:83:0c:62:1b:de:1d:03:cc:24:
                    e3:35:bb:4a:0f:b6:52:44:9c:39:33:97:a6:1d:b4:
                    d3:59:2c:76:eb:f5:ea:16:06:28:df:66:ca:bb:30:
                    31:56:51:57:15:87:16:1c:64:92:c5:af:17:11:c3:
                    fe:23:0d:8a:b2:fd:25:1f:8d:af:04:1b:97:5b:98:
                    89:fa:84:da:47:15:f9:b6:0d:23:00:66:19:4b:6a:
                    7e:37:cf:80:07:59:d2:2e:3a:1a:79:f4:34:91:e8:
                    37:06:78:5d:3b:b1:13:46:c9:b7:a8:13:fe:41:48:
                    0c:57
                Exponent: 65537 (0x10001)
        X509v3 extensions:
            X509v3 Subject Alternative Name: 
                DNS:test.com, DNS:blah.com
    Signature Algorithm: sha1WithRSAEncryption
         8e:83:ce:f4:0c:e5:d7:de:51:1d:4a:aa:07:66:fd:15:d6:c6:
         49:31:ed:89:2f:dc:21:48:28:25:95:0e:c8:76:2d:73:a2:49:
         33:ac:93:3f:41:9f:79:ee:2d:68:01:69:e3:fe:0b:ed:21:92:
         6c:32:b3:e8:55:de:c8:49:85:95:f3:aa:83:36:bf:4f:ea:92:
         9e:44:b2:d8:6c:76:d7:a6:0b:d9:95:e9:ad:a1:c7:b1:9a:d5:
         c4:0b:93:91:37:c5:e4:a5:aa:de:23:21:5b:bd:b6:35:bb:a1:
         1c:53:c1:4c:7b:59:33:0c:76:e5:c9:07:bc:ab:90:ad:c4:6d:
         b4:cc:4b:d1:38:3c:b4:b3:0f:39:36:e2:26:a6:27:f0:09:1a:
         56:32:a3:d5:ac:60:33:11:15:4a:5e:4c:d8:5e:3c:65:6d:cf:
         45:7c:33:26:ea:6e:d6:e7:67:21:71:86:25:d8:3c:4d:59:2c:
         cf:8a:c8:51:63:94:0f:c0:8d:fc:91:52:5d:89:61:c2:15:f8:
         aa:7e:ad:2f:16:ae:2f:3d:55:10:2a:7b:7f:7c:b8:18:c2:61:
         5f:e6:83:e5:4a:ca:03:67:54:76:fe:f1:1b:2a:14:92:79:1f:
         3c:e0:80:69:8f:2b:4d:e8:e5:a0:35:3c:fe:4b:39:4f:97:c9:
         94:3a:bd:b3
-----BEGIN CERTIFICATE-----
MIIDITCCAgmgAwIBAgIBBDANBgkqhkiG9w0BAQUFADAvMQwwCgYDVQQKDANVUzMx
ETAPBgNVBAsMCFVTMyBVbml0MQwwCgYDVQQDDANVUzMwIhgPMjAxOTAxMjIwMTAw
NTlaGA8yMDE5MDUwMzAxMDA1OVowUjELMAkGA1UECAwCV0ExDTALBgNVBAoMBFRl
c3QxEjAQBgNVBAsMCVRlc3QgVW5pdDENMAsGA1UEAwwEc2hhMTERMA8GA1UEAwwI
dGVzdC5jb20wggEiMA0GCSqGSIb3DQEBAQUAA4IBDwAwggEKAoIBAQC9RPJuzVY5
3rjtM7G8BwBmuWykH80I4Gg5FiaMYXO5AaNVt651zt3aOOxbtx24fbHm/0OwoLZE
373qRhGi9+GEuNkdvDRpoeyv238gQ6x3SFYNCjaig6uNWmGO3dUsFtcvRLU+pK46
GTu0Iid5CDyfA7fdEjJKU9LoEJyDXRshhkrChDhoqNjcDWyFZIMMYhveHQPMJOM1
u0oPtlJEnDkzl6YdtNNZLHbr9eoWBijfZsq7MDFWUVcVhxYcZJLFrxcRw/4jDYqy
/SUfja8EG5dbmIn6hNpHFfm2DSMAZhlLan43z4AHWdIuOhp59DSR6DcGeF07sRNG
ybeoE/5BSAxXAgMBAAGjITAfMB0GA1UdEQQWMBSCCHRlc3QuY29tgghibGFoLmNv
bTANBgkqhkiG9w0BAQUFAAOCAQEAjoPO9Azl195RHUqqB2b9FdbGSTHtiS/cIUgo
JZUOyHYtc6JJM6yTP0Gfee4taAFp4/4L7SGSbDKz6FXeyEmFlfOqgza/T+qSnkSy
2Gx216YL2ZXpraHHsZrVxAuTkTfF5KWq3iMhW722NbuhHFPBTHtZMwx25ckHvKuQ
rcRttMxL0Tg8tLMPOTbiJqYn8AkaVjKj1axgMxEVSl5M2F48ZW3PRXwzJupu1udn
IXGGJdg8TVksz4rIUWOUD8CN/JFSXYlhwhX4qn6tLxauLz1VECp7f3y4GMJhX+aD
5UrKA2dUdv7xGyoUknkfPOCAaY8rTejloDU8/ks5T5fJlDq9sw==
-----END CERTIFICATE-----
