Certificate:
    Data:
        Version: 3 (0x2)
        Serial Number: 3 (0x3)
    Signature Algorithm: sha256WithRSAEncryption
        Issuer: O=US3, OU=US3 Unit, CN=US3
        Validity
            Not Before: Jan 22 23:45:08 2019 GMT
            Not After : May  3 23:45:08 2019 GMT
        Subject: ST=WA, O=Test, OU=Test Unit, CN=weak, CN=test.com
        Subject Public Key Info:
            Public Key Algorithm: rsaEncryption
                Public-Key: (1024 bit)
                Modulus:
                    00:c5:5f:a4:90:c7:2c:12:0a:6e:65:ec:4b:aa:0e:
                    d3:45:f2:d9:7a:6e:77:62:e0:9c:0b:cd:9c:f6:78:
                    1d:80:14:b0:5a:a1:e6:6f:3c:b8:ab:c6:a8:fc:17:
                    1f:c8:4b:be:1f:5b:a3:42:79:73:85:57:04:50:35:
                    dd:3d:32:ae:a3:bb:f9:0d:ba:43:07:f9:91:1c:e8:
                    72:a1:08:c1:4e:c6:9f:ae:96:14:c6:eb:5c:0d:8d:
                    94:1c:29:ee:b8:2b:35:60:5f:58:7e:25:93:d1:9b:
                    1b:94:fa:54:21:8a:04:26:c7:7f:b9:b3:3e:ac:c9:
                    d5:de:dc:e6:ca:57:bf:80:81
                Exponent: 65537 (0x10001)
        X509v3 extensions:
            X509v3 Subject Alternative Name: 
                DNS:test.com, DNS:blah.com
    Signature Algorithm: sha256WithRSAEncryption
         3e:4d:aa:bb:de:8e:d2:ca:a2:0c:18:2a:0a:2b:0b:b0:cc:81:
         f4:fb:f1:9f:36:43:a7:e3:4f:5c:54:c6:ef:47:fb:42:ea:78:
         76:37:59:2f:d5:71:c3:38:c7:70:42:92:2a:1a:79:b6:cc:b7:
         04:ed:c9:ce:c4:fd:62:32:68:0a:2e:fe:00:50:62:0a:e2:65:
         cd:46:b7:0f:0a:b5:a3:cd:ad:01:66:f2:4e:ba:e2:67:88:b7:
         18:63:dc:85:28:af:b2:a1:b6:eb:66:7d:e3:87:16:9b:21:78:
         e4:df:44:14:f4:2f:dd:63:43:42:6b:81:49:ca:7e:04:7e:f2:
         4f:87:27:b1:38:64:1f:86:79:57:e6:63:9c:34:10:0a:a5:76:
         b9:a0:5c:88:1c:b0:9c:ed:d2:a6:e3:2d:69:e3:e3:8b:f1:9d:
         61:f9:b5:bb:45:c2:08:8a:b0:1f:fb:12:c0:8d:bd:54:ac:cb:
         d2:91:55:bc:f3:db:0d:28:06:01:19:b5:63:1b:4b:6a:15:0e:
         26:9a:21:e7:23:31:1a:ba:29:44:e1:e9:dd:f1:d4:63:09:3e:
         de:99:30:5b:db:0b:96:d9:ed:0a:fc:f5:1f:1c:33:66:24:a8:
         7b:cc:e9:6c:9d:1e:87:eb:2f:2f:1e:cb:ca:a3:8f:fd:39:a0:
         45:cd:55:2e
-----BEGIN CERTIFICATE-----
MIICnTCCAYWgAwIBAgIBAzANBgkqhkiG9w0BAQsFADAvMQwwCgYDVQQKDANVUzMx
ETAPBgNVBAsMCFVTMyBVbml0MQwwCgYDVQQDDANVUzMwIhgPMjAxOTAxMjIyMzQ1
MDhaGA8yMDE5MDUwMzIzNDUwOFowUjELMAkGA1UECAwCV0ExDTALBgNVBAoMBFRl
c3QxEjAQBgNVBAsMCVRlc3QgVW5pdDENMAsGA1UEAwwEd2VhazERMA8GA1UEAwwI
dGVzdC5jb20wgZ8wDQYJKoZIhvcNAQEBBQADgY0AMIGJAoGBAMVfpJDHLBIKbmXs
S6oO00Xy2Xpud2LgnAvNnPZ4HYAUsFqh5m88uKvGqPwXH8hLvh9bo0J5c4VXBFA1
3T0yrqO7+Q26Qwf5kRzocqEIwU7Gn66WFMbrXA2NlBwp7rgrNWBfWH4lk9GbG5T6
VCGKBCbHf7mzPqzJ1d7c5spXv4CBAgMBAAGjITAfMB0GA1UdEQQWMBSCCHRlc3Qu
Y29tgghibGFoLmNvbTANBgkqhkiG9w0BAQsFAAOCAQEAPk2qu96O0sqiDBgqCisL
sMyB9PvxnzZDp+NPXFTG70f7Qup4djdZL9VxwzjHcEKSKhp5tsy3BO3JzsT9YjJo
Ci7+AFBiCuJlzUa3Dwq1o82tAWbyTrriZ4i3GGPchSivsqG262Z944cWmyF45N9E
FPQv3WNDQmuBScp+BH7yT4cnsThkH4Z5V+ZjnDQQCqV2uaBciBywnO3SpuMtaePj
i/GdYfm1u0XCCIqwH/sSwI29VKzL0pFVvPPbDSgGARm1YxtLahUOJpoh5yMxGrop
ROHp3fHUYwk+3pkwW9sLltntCvz1HxwzZiSoe8zpbJ0eh+svLx7LyqOP/TmgRc1V
Lg==
-----END CERTIFICATE-----
