Certificate:
    Data:
        Version: 3 (0x2)
        Serial Number: 3 (0x3)
    Signature Algorithm: sha256WithRSAEncryption
        Issuer: O=US3, OU=US3 Unit, CN=US3
        Validity
            Not Before: Jan 22 01:00:58 2019 GMT
            Not After : May  3 01:00:58 2019 GMT
        Subject: ST=WA, O=Test, OU=Test Unit, CN=weak, CN=test.com
        Subject Public Key Info:
            Public Key Algorithm: rsaEncryption
                Public-Key: (1024 bit)
                Modulus:
                    00:ad:ee:e6:b2:46:fa:09:57:2e:01:ff:32:c2:9c:
                    1e:eb:a2:95:27:cb:0f:b4:d6:93:2d:36:45:10:09:
                    02:c9:a4:2e:ce:ef:1d:9d:e8:7d:35:4d:bc:cb:65:
                    4d:df:cd:34:d1:ef:1f:ae:11:f0:52:32:21:f0:09:
                    43:71:48:48:f8:a2:d3:9a:78:44:81:3c:a2:7b:ae:
                    0f:0b:b9:73:b9:73:79:85:31:6a:92:76:41:b2:e3:
                    5f:66:e6:0c:b6:5c:83:02:b3:ee:19:04:b4:b9:62:
                    9f:3c:2b:3f:5c:de:58:d3:cb:7f:67:7b:92:f0:82:
                    6a:3d:63:8a:96:04:47:90:a1
                Exponent: 65537 (0x10001)
        X509v3 extensions:
            X509v3 Subject Alternative Name: 
                DNS:test.com, DNS:blah.com
    Signature Algorithm: sha256WithRSAEncryption
         5e:ca:ab:f2:65:d7:3b:1e:2e:d6:55:4d:22:e1:be:e0:53:64:
         a9:7f:c0:14:d9:b6:d1:63:38:69:a1:dd:49:85:88:3a:8f:7b:
         2c:4d:fc:2b:a5:a5:fb:6a:54:29:48:82:ed:38:cc:22:77:3e:
         03:da:5b:d1:9c:42:56:9f:6a:50:44:71:89:7a:fe:37:4c:73:
         9c:0a:0d:d6:bb:56:ba:99:40:cf:90:14:7c:69:fc:bf:95:48:
         1f:0f:87:1b:6c:80:fb:b9:46:17:2d:75:50:77:04:ce:89:0d:
         d1:e2:4c:be:c3:34:39:42:92:d1:90:d8:94:4e:4b:20:57:fe:
         00:18:f5:60:20:09:ea:91:e4:d5:67:c8:6a:82:a0:28:a5:79:
         72:eb:42:ea:32:de:13:2e:aa:f0:4c:7d:3b:ba:5a:54:a7:39:
         b7:50:bd:c0:e7:9d:54:11:dd:f4:39:09:85:3f:3c:77:f8:b6:
         64:35:03:8d:bd:43:d3:dc:ef:b0:09:67:bb:c3:46:45:37:fd:
         f8:4e:03:85:d5:45:dd:d5:91:f0:8b:9b:1e:ae:b3:d7:cc:87:
         19:44:f8:49:90:fc:a7:e2:68:cf:85:a4:49:47:83:33:5a:f9:
         78:90:da:c9:07:bf:80:5a:b1:b9:e3:af:f1:a4:98:1a:0b:38:
         9d:27:56:eb
-----BEGIN CERTIFICATE-----
MIICnTCCAYWgAwIBAgIBAzANBgkqhkiG9w0BAQsFADAvMQwwCgYDVQQKDANVUzMx
ETAPBgNVBAsMCFVTMyBVbml0MQwwCgYDVQQDDANVUzMwIhgPMjAxOTAxMjIwMTAw
NThaGA8yMDE5MDUwMzAxMDA1OFowUjELMAkGA1UECAwCV0ExDTALBgNVBAoMBFRl
c3QxEjAQBgNVBAsMCVRlc3QgVW5pdDENMAsGA1UEAwwEd2VhazERMA8GA1UEAwwI
dGVzdC5jb20wgZ8wDQYJKoZIhvcNAQEBBQADgY0AMIGJAoGBAK3u5rJG+glXLgH/
MsKcHuuilSfLD7TWky02RRAJAsmkLs7vHZ3ofTVNvMtlTd/NNNHvH64R8FIyIfAJ
Q3FISPii05p4RIE8onuuDwu5c7lzeYUxapJ2QbLjX2bmDLZcgwKz7hkEtLlinzwr
P1zeWNPLf2d7kvCCaj1jipYER5ChAgMBAAGjITAfMB0GA1UdEQQWMBSCCHRlc3Qu
Y29tgghibGFoLmNvbTANBgkqhkiG9w0BAQsFAAOCAQEAXsqr8mXXOx4u1lVNIuG+
4FNkqX/AFNm20WM4aaHdSYWIOo97LE38K6Wl+2pUKUiC7TjMInc+A9pb0ZxCVp9q
UERxiXr+N0xznAoN1rtWuplAz5AUfGn8v5VIHw+HG2yA+7lGFy11UHcEzokN0eJM
vsM0OUKS0ZDYlE5LIFf+ABj1YCAJ6pHk1WfIaoKgKKV5cutC6jLeEy6q8Ex9O7pa
VKc5t1C9wOedVBHd9DkJhT88d/i2ZDUDjb1D09zvsAlnu8NGRTf9+E4DhdVF3dWR
8IubHq6z18yHGUT4SZD8p+Joz4WkSUeDM1r5eJDayQe/gFqxueOv8aSYGgs4nSdW
6w==
-----END CERTIFICATE-----
